target datalayout = "e-m:e-p270:32:32-p271:32:32-p272:64:64-i64:64-i128:128-f80:128-n8:16:32:64-S128"
target triple = "x86_64-pc-linux-gnu"

%"class.spacer::convex_closure" = type { %"struct.spacer::convex_closure::stats", ptr, %class.arith_util, %class.bv_util, i32, i8, i32, %"class.spacer::spacer_matrix", %class.ref_vector, %class.vector.1, %"class.spacer::spacer_arith_kernel", %class.ref_vector, %class.ref_vector, %class.ref_vector }
%"struct.spacer::convex_closure::stats" = type { i32, i32, %class.stopwatch }
%class.stopwatch = type <{ %"class.std::chrono::time_point", %"class.std::chrono::duration", i8, [7 x i8] }>
%"class.std::chrono::time_point" = type { %"class.std::chrono::duration" }
%"class.std::chrono::duration" = type { i64 }
%class.arith_util = type { ptr, ptr }
%class.bv_util = type { %class.bv_recognizers, ptr, ptr }
%class.bv_recognizers = type { i32 }
%"class.spacer::spacer_matrix" = type { i32, i32, %class.vector }
%class.vector = type { ptr }
%class.vector.1 = type { ptr }
%"class.spacer::spacer_arith_kernel" = type { ptr, %"struct.spacer::spacer_arith_kernel::stats", ptr, %"class.spacer::spacer_matrix", %class.vector.2, %class.scoped_ptr }
%"struct.spacer::spacer_arith_kernel::stats" = type { i32 }
%class.vector.2 = type { ptr }
%class.scoped_ptr = type { ptr }
%class.ref_vector = type { %class.ref_vector_core }
%class.ref_vector_core = type { %class.ref_manager_wrapper, %class.ptr_vector }
%class.ref_manager_wrapper = type { ptr }
%class.ptr_vector = type { %class.vector.0 }
%class.vector.0 = type { ptr }

; Function Attrs: mustprogress uwtable
define linkonce_odr hidden noundef nonnull align 8 dereferenceable(441) ptr @_ZNK10arith_util6pluginEv(ptr noundef nonnull align 8 dereferenceable(16) %0) #4 comdat align 2 {
  %2 = alloca ptr, align 8
  store ptr %0, ptr %2, align 8, !tbaa !111
  %3 = load ptr, ptr %2, align 8
  %4 = getelementptr inbounds nuw %class.arith_util, ptr %3, i32 0, i32 1
  %5 = load ptr, ptr %4, align 8, !tbaa !203
  %6 = icmp ne ptr %5, null
  br i1 %6, label %8, label %7

7:                                                ; preds = %1
  call void @_ZN10arith_util11init_pluginEv(ptr noundef nonnull align 8 dereferenceable(16) %3)
  br label %8

8:                                                ; preds = %7, %1
  %9 = getelementptr inbounds nuw %class.arith_util, ptr %3, i32 0, i32 1
  %10 = load ptr, ptr %9, align 8, !tbaa !203
  ret ptr %10
}

; Function Attrs: mustprogress uwtable
define linkonce_odr hidden noundef ptr @_ZNK10arith_util10mk_numeralERK8rationalb(ptr noundef nonnull align 8 dereferenceable(16) %0, ptr noundef nonnull align 8 dereferenceable(32) %1, i1 noundef zeroext %2) #4 comdat align 2 {
  %4 = alloca ptr, align 8
  %5 = alloca ptr, align 8
  %6 = alloca i8, align 1
  store ptr %0, ptr %4, align 8, !tbaa !111
  store ptr %1, ptr %5, align 8, !tbaa !93
  %7 = zext i1 %2 to i8
  store i8 %7, ptr %6, align 1, !tbaa !62
  %8 = load ptr, ptr %4, align 8
  %9 = call noundef nonnull align 8 dereferenceable(441) ptr @_ZNK10arith_util6pluginEv(ptr noundef nonnull align 8 dereferenceable(16) %8)
  %10 = load ptr, ptr %5, align 8, !tbaa !93
  %11 = load i8, ptr %6, align 1, !tbaa !62, !range !66, !noundef !67
  %12 = trunc i8 %11 to i1
  %13 = call noundef ptr @_ZN17arith_decl_plugin10mk_numeralERK8rationalb(ptr noundef nonnull align 8 dereferenceable(441) %9, ptr noundef nonnull align 8 dereferenceable(32) %10, i1 noundef zeroext %12)
  ret ptr %13
}

; Function Attrs: mustprogress nounwind uwtable
define linkonce_odr hidden noundef zeroext i1 @_ZN6spacer14convex_closure6has_bvEv(ptr noundef nonnull align 8 dereferenceable(240) %0) #5 comdat align 2 {
  %2 = alloca ptr, align 8
  store ptr %0, ptr %2, align 8, !tbaa !3
  %3 = load ptr, ptr %2, align 8
  %4 = getelementptr inbounds nuw %"class.spacer::convex_closure", ptr %3, i32 0, i32 4
  %5 = load i32, ptr %4, align 8, !tbaa !43
  %6 = icmp ugt i32 %5, 0
  ret i1 %6
}

; Function Attrs: mustprogress uwtable
define hidden noundef ptr @_ZN6spacer14convex_closure10mk_numeralERK8rationalb(ptr noundef nonnull align 8 dereferenceable(240) %0, ptr noundef nonnull align 8 dereferenceable(32) %1, i1 noundef zeroext %2) #4 align 2 {
  %4 = alloca ptr, align 8
  %5 = alloca ptr, align 8
  %6 = alloca ptr, align 8
  %7 = alloca i8, align 1
  store ptr %0, ptr %5, align 8, !tbaa !3
  store ptr %1, ptr %6, align 8, !tbaa !93
  %8 = zext i1 %2 to i8
  store i8 %8, ptr %7, align 1, !tbaa !62
  %9 = load ptr, ptr %5, align 8
  %10 = call noundef zeroext i1 @_ZN6spacer14convex_closure6has_bvEv(ptr noundef nonnull align 8 dereferenceable(240) %9)
  br i1 %10, label %17, label %11

11:                                               ; preds = %3
  %12 = getelementptr inbounds nuw %"class.spacer::convex_closure", ptr %9, i32 0, i32 2
  %13 = load ptr, ptr %6, align 8, !tbaa !93
  %14 = load i8, ptr %7, align 1, !tbaa !62, !range !66, !noundef !67
  %15 = trunc i8 %14 to i1
  %16 = call noundef ptr @_ZNK10arith_util10mk_numeralERK8rationalb(ptr noundef nonnull align 8 dereferenceable(16) %12, ptr noundef nonnull align 8 dereferenceable(32) %13, i1 noundef zeroext %15)
  store ptr %16, ptr %4, align 8
  br label %23

17:                                               ; preds = %3
  %18 = getelementptr inbounds nuw %"class.spacer::convex_closure", ptr %9, i32 0, i32 3
  %19 = load ptr, ptr %6, align 8, !tbaa !93
  %20 = getelementptr inbounds nuw %"class.spacer::convex_closure", ptr %9, i32 0, i32 4
  %21 = load i32, ptr %20, align 8, !tbaa !43
  %22 = call noundef ptr @_ZNK7bv_util10mk_numeralERK8rationalj(ptr noundef nonnull align 8 dereferenceable(24) %18, ptr noundef nonnull align 8 dereferenceable(32) %19, i32 noundef %21)
  store ptr %22, ptr %4, align 8
  br label %23

23:                                               ; preds = %17, %11
  %24 = load ptr, ptr %4, align 8
  ret ptr %24
}