; Function Attrs: mustprogress uwtable
define hidden noundef ptr @_ZN6spacer14convex_closure10mk_numeralERK8rationalb(ptr noundef nonnull align 8 dereferenceable(240) %0, ptr noundef nonnull align 8 dereferenceable(32) %1, i1 noundef zeroext %2) local_unnamed_addr #3 align 2 {
  %4 = getelementptr inbounds nuw i8, ptr %0, i64 80
  %5 = load i32, ptr %4, align 8, !tbaa !41
  %.not = icmp eq i32 %5, 0
  br i1 %.not, label %6, label %13

6:                                                ; preds = %3
  %7 = getelementptr inbounds nuw i8, ptr %0, i64 48
  %8 = load ptr, ptr %7, align 8, !tbaa !101
  %.not.i.i = icmp eq ptr %8, null
  br i1 %.not.i.i, label %9, label %_ZNK10arith_util10mk_numeralERK8rationalb.exit

9:                                                ; preds = %6
  %10 = getelementptr inbounds nuw i8, ptr %0, i64 40
  tail call void @_ZN10arith_util11init_pluginEv(ptr noundef nonnull align 8 dereferenceable(16) %10)
  %.pre.i.i = load ptr, ptr %7, align 8, !tbaa !101
  br label %_ZNK10arith_util10mk_numeralERK8rationalb.exit

_ZNK10arith_util10mk_numeralERK8rationalb.exit:   ; preds = %6, %9
  %11 = phi ptr [ %.pre.i.i, %9 ], [ %8, %6 ]
  %12 = tail call noundef ptr @_ZN17arith_decl_plugin10mk_numeralERK8rationalb(ptr noundef nonnull align 8 dereferenceable(441) %11, ptr noundef nonnull align 8 dereferenceable(32) %1, i1 noundef zeroext %2)
  br label %16

13:                                               ; preds = %3
  %14 = getelementptr inbounds nuw i8, ptr %0, i64 56
  %15 = tail call noundef ptr @_ZNK7bv_util10mk_numeralERK8rationalj(ptr noundef nonnull align 8 dereferenceable(24) %14, ptr noundef nonnull align 8 dereferenceable(32) %1, i32 noundef %5)
  br label %16

16:                                               ; preds = %13, %_ZNK10arith_util10mk_numeralERK8rationalb.exit
  %.0 = phi ptr [ %15, %13 ], [ %12, %_ZNK10arith_util10mk_numeralERK8rationalb.exit ]
  ret ptr %.0
}